target datalayout = "e-m:e-p270:32:32-p271:32:32-p272:64:64-i64:64-i128:128-f80:128-n8:16:32:64-S128"
target triple = "x86_64-pc-linux-gnu"

; Function Attrs: nounwind uwtable
define internal void @min16_fun(ptr noundef %0, ptr noundef %1, ptr noundef %2, i32 noundef %3) #0 {
  %5 = alloca ptr, align 8
  %6 = alloca ptr, align 8
  %7 = alloca ptr, align 8
  %8 = alloca i32, align 4
  %9 = alloca ptr, align 8
  %10 = alloca ptr, align 8
  %11 = alloca ptr, align 8
  %12 = alloca i32, align 4
  store ptr %0, ptr %5, align 8, !tbaa !72
  store ptr %1, ptr %6, align 8, !tbaa !72
  store ptr %2, ptr %7, align 8, !tbaa !72
  store i32 %3, ptr %8, align 4, !tbaa !24
  call void @llvm.lifetime.start.p0(i64 8, ptr %9) #12
  %13 = load ptr, ptr %6, align 8, !tbaa !72
  store ptr %13, ptr %9, align 8, !tbaa !136
  call void @llvm.lifetime.start.p0(i64 8, ptr %10) #12
  %14 = load ptr, ptr %7, align 8, !tbaa !72
  store ptr %14, ptr %10, align 8, !tbaa !136
  call void @llvm.lifetime.start.p0(i64 8, ptr %11) #12
  %15 = load ptr, ptr %5, align 8, !tbaa !72
  store ptr %15, ptr %11, align 8, !tbaa !136
  call void @llvm.lifetime.start.p0(i64 4, ptr %12) #12
  store i32 0, ptr %12, align 4, !tbaa !24
  br label %16

16:                                               ; preds = %56, %4
  %17 = load i32, ptr %12, align 4, !tbaa !24
  %18 = load i32, ptr %8, align 4, !tbaa !24
  %19 = icmp slt i32 %17, %18
  br i1 %19, label %21, label %20

20:                                               ; preds = %16
  call void @llvm.lifetime.end.p0(i64 4, ptr %12) #12
  br label %59

21:                                               ; preds = %16
  %22 = load ptr, ptr %10, align 8, !tbaa !136
  %23 = load i32, ptr %12, align 4, !tbaa !24
  %24 = sext i32 %23 to i64
  %25 = getelementptr inbounds i16, ptr %22, i64 %24
  %26 = load i16, ptr %25, align 2, !tbaa !138
  %27 = zext i16 %26 to i32
  %28 = load ptr, ptr %9, align 8, !tbaa !136
  %29 = load i32, ptr %12, align 4, !tbaa !24
  %30 = sext i32 %29 to i64
  %31 = getelementptr inbounds i16, ptr %28, i64 %30
  %32 = load i16, ptr %31, align 2, !tbaa !138
  %33 = zext i16 %32 to i32
  %34 = icmp sgt i32 %27, %33
  br i1 %34, label %35, label %42

35:                                               ; preds = %21
  %36 = load ptr, ptr %9, align 8, !tbaa !136
  %37 = load i32, ptr %12, align 4, !tbaa !24
  %38 = sext i32 %37 to i64
  %39 = getelementptr inbounds i16, ptr %36, i64 %38
  %40 = load i16, ptr %39, align 2, !tbaa !138
  %41 = zext i16 %40 to i32
  br label %49

42:                                               ; preds = %21
  %43 = load ptr, ptr %10, align 8, !tbaa !136
  %44 = load i32, ptr %12, align 4, !tbaa !24
  %45 = sext i32 %44 to i64
  %46 = getelementptr inbounds i16, ptr %43, i64 %45
  %47 = load i16, ptr %46, align 2, !tbaa !138
  %48 = zext i16 %47 to i32
  br label %49

49:                                               ; preds = %42, %35
  %50 = phi i32 [ %41, %35 ], [ %48, %42 ]
  %51 = trunc i32 %50 to i16
  %52 = load ptr, ptr %11, align 8, !tbaa !136
  %53 = load i32, ptr %12, align 4, !tbaa !24
  %54 = sext i32 %53 to i64
  %55 = getelementptr inbounds i16, ptr %52, i64 %54
  store i16 %51, ptr %55, align 2, !tbaa !138
  br label %56

56:                                               ; preds = %49
  %57 = load i32, ptr %12, align 4, !tbaa !24
  %58 = add nsw i32 %57, 1
  store i32 %58, ptr %12, align 4, !tbaa !24
  br label %16, !llvm.loop !142

59:                                               ; preds = %20
  call void @llvm.lifetime.end.p0(i64 8, ptr %11) #12
  call void @llvm.lifetime.end.p0(i64 8, ptr %10) #12
  call void @llvm.lifetime.end.p0(i64 8, ptr %9) #12
  ret void
}